; Function Attrs: nounwind uwtable
define ptr @l_Array_filterMapM___at_Lean_Server_FileWorker_initializeWorker___spec__1(ptr noundef readonly captures(none) %0, ptr noundef %1, ptr noundef %2, ptr noundef %3) local_unnamed_addr #0 {
  %5 = ptrtoint ptr %1 to i64
  %6 = and i64 %5, 1
  %7 = ptrtoint ptr %2 to i64
  %8 = and i64 %6, %7
  %or.cond.not = icmp eq i64 %8, 0
  br i1 %or.cond.not, label %lean_nat_lt.exit, label %9, !prof !25

9:                                                ; preds = %4
  %10 = icmp ult ptr %1, %2
  br i1 %10, label %20, label %12

lean_nat_lt.exit:                                 ; preds = %4
  %11 = tail call zeroext i1 @lean_nat_big_lt(ptr noundef %1, ptr noundef %2) #7
  br i1 %11, label %20, label %12

12:                                               ; preds = %9, %lean_nat_lt.exit
  %13 = load ptr, ptr @l_Array_filterMapM___at___private_Lean_Server_FileWorker_0__Lean_Server_FileWorker_reportSnapshots_sendFileProgress___spec__1___closed__1, align 8, !tbaa !4
  tail call void @lean_inc_heartbeat() #7
  %14 = tail call noalias ptr @mi_malloc_small(i64 noundef 24) #7
  %15 = icmp eq ptr %14, null
  br i1 %15, label %16, label %lean_alloc_ctor.exit

16:                                               ; preds = %12
  tail call void @lean_internal_panic_out_of_memory() #8
  unreachable

lean_alloc_ctor.exit:                             ; preds = %12
  %17 = getelementptr inbounds nuw i8, ptr %14, i64 4
  store i32 1, ptr %14, align 4, !tbaa !10
  store i32 131096, ptr %17, align 4
  %18 = getelementptr inbounds nuw i8, ptr %14, i64 8
  store ptr %13, ptr %18, align 8, !tbaa !4
  %19 = getelementptr inbounds nuw i8, ptr %14, i64 16
  store ptr %3, ptr %19, align 8, !tbaa !4
  br label %49

20:                                               ; preds = %9, %lean_nat_lt.exit
  %21 = getelementptr i8, ptr %0, i64 8
  %.val = load i64, ptr %21, align 8, !tbaa !8
  %22 = shl i64 %.val, 1
  %23 = or disjoint i64 %22, 1
  %24 = inttoptr i64 %23 to ptr
  %25 = and i64 %7, 1
  %.not = icmp eq i64 %25, 0
  br i1 %.not, label %lean_dec.exit, label %26, !prof !17

26:                                               ; preds = %20
  %.not34 = icmp ugt ptr %2, %24
  br i1 %.not34, label %28, label %36

lean_dec.exit:                                    ; preds = %20
  %27 = tail call zeroext i1 @lean_nat_big_le(ptr noundef %2, ptr noundef nonnull %24) #7
  br i1 %27, label %36, label %28

28:                                               ; preds = %26, %lean_dec.exit
  %29 = load ptr, ptr @l_Array_filterMapM___at___private_Lean_Server_FileWorker_0__Lean_Server_FileWorker_reportSnapshots_sendFileProgress___spec__1___closed__1, align 8, !tbaa !4
  tail call void @lean_inc_heartbeat() #7
  %30 = tail call noalias ptr @mi_malloc_small(i64 noundef 24) #7
  %31 = icmp eq ptr %30, null
  br i1 %31, label %32, label %lean_alloc_ctor.exit28

32:                                               ; preds = %28
  tail call void @lean_internal_panic_out_of_memory() #8
  unreachable

lean_alloc_ctor.exit28:                           ; preds = %28
  %33 = getelementptr inbounds nuw i8, ptr %30, i64 4
  store i32 1, ptr %30, align 4, !tbaa !10
  store i32 131096, ptr %33, align 4
  %34 = getelementptr inbounds nuw i8, ptr %30, i64 8
  store ptr %29, ptr %34, align 8, !tbaa !4
  %35 = getelementptr inbounds nuw i8, ptr %30, i64 16
  store ptr %3, ptr %35, align 8, !tbaa !4
  br label %49

36:                                               ; preds = %26, %lean_dec.exit
  %.not.i29 = icmp eq i64 %6, 0
  br i1 %.not.i29, label %39, label %37

37:                                               ; preds = %36
  %38 = lshr i64 %5, 1
  br label %lean_usize_of_nat.exit

39:                                               ; preds = %36
  %40 = tail call i64 @lean_usize_of_big_nat(ptr noundef %1) #7
  br label %lean_usize_of_nat.exit

lean_usize_of_nat.exit:                           ; preds = %37, %39
  %41 = phi i64 [ %38, %37 ], [ %40, %39 ]
  br i1 %.not, label %44, label %42

42:                                               ; preds = %lean_usize_of_nat.exit
  %43 = lshr i64 %7, 1
  br label %lean_usize_of_nat.exit31

44:                                               ; preds = %lean_usize_of_nat.exit
  %45 = tail call i64 @lean_usize_of_big_nat(ptr noundef %2) #7
  br label %lean_usize_of_nat.exit31

lean_usize_of_nat.exit31:                         ; preds = %42, %44
  %46 = phi i64 [ %43, %42 ], [ %45, %44 ]
  %47 = load ptr, ptr @l_Array_filterMapM___at___private_Lean_Server_FileWorker_0__Lean_Server_FileWorker_reportSnapshots_sendFileProgress___spec__1___closed__1, align 8, !tbaa !4
  %48 = tail call ptr @l_Array_foldlMUnsafe_fold___at_Lean_Server_FileWorker_initializeWorker___spec__2(ptr noundef nonnull %0, i64 noundef %41, i64 noundef %46, ptr noundef %47, ptr noundef %3)
  br label %49

49:                                               ; preds = %lean_alloc_ctor.exit28, %lean_usize_of_nat.exit31, %lean_alloc_ctor.exit
  %.0 = phi ptr [ %14, %lean_alloc_ctor.exit ], [ %30, %lean_alloc_ctor.exit28 ], [ %48, %lean_usize_of_nat.exit31 ]
  ret ptr %.0
}